target datalayout = "e-m:e-p270:32:32-p271:32:32-p272:64:64-i64:64-i128:128-f80:128-n8:16:32:64-S128"
target triple = "x86_64-pc-linux-gnu"

%struct.AVFilterContext = type { ptr, ptr, ptr, ptr, ptr, i32, ptr, ptr, i32, ptr, ptr, i32, i32, ptr, ptr, ptr, ptr, i32, ptr, i32, i32 }
%struct.SilenceDetectContext = type { ptr, double, i64, i32, i32, i32, ptr, ptr, i64, i32, %struct.AVRational, ptr }
%struct.AVRational = type { i32, i32 }
%struct.AVFilterLink = type { ptr, ptr, ptr, ptr, i32, i32, i32, i32, %struct.AVRational, i32, i32, i32, %struct.AVChannelLayout, %struct.AVRational, ptr, i32, %struct.AVFilterFormatsConfig, %struct.AVFilterFormatsConfig }
%struct.AVChannelLayout = type { i32, i32, %union.anon.1, ptr }
%union.anon.1 = type { i64 }
%struct.AVFilterFormatsConfig = type { ptr, ptr, ptr, ptr, ptr }

; Function Attrs: nounwind uwtable
define internal i32 @config_input(ptr noundef %0) #1 {
  %2 = alloca i32, align 4
  %3 = alloca ptr, align 8
  %4 = alloca ptr, align 8
  %5 = alloca ptr, align 8
  %6 = alloca i32, align 4
  %7 = alloca i32, align 4
  store ptr %0, ptr %3, align 8, !tbaa !35
  call void @llvm.lifetime.start.p0(i64 8, ptr %4) #10
  %8 = load ptr, ptr %3, align 8, !tbaa !35
  %9 = getelementptr inbounds nuw %struct.AVFilterLink, ptr %8, i32 0, i32 2
  %10 = load ptr, ptr %9, align 8, !tbaa !39
  store ptr %10, ptr %4, align 8, !tbaa !4
  call void @llvm.lifetime.start.p0(i64 8, ptr %5) #10
  %11 = load ptr, ptr %4, align 8, !tbaa !4
  %12 = getelementptr inbounds nuw %struct.AVFilterContext, ptr %11, i32 0, i32 9
  %13 = load ptr, ptr %12, align 8, !tbaa !9
  store ptr %13, ptr %5, align 8, !tbaa !22
  call void @llvm.lifetime.start.p0(i64 4, ptr %6) #10
  %14 = load ptr, ptr %3, align 8, !tbaa !35
  %15 = getelementptr inbounds nuw %struct.AVFilterLink, ptr %14, i32 0, i32 12
  %16 = getelementptr inbounds nuw %struct.AVChannelLayout, ptr %15, i32 0, i32 1
  %17 = load i32, ptr %16, align 4, !tbaa !46
  %18 = load ptr, ptr %5, align 8, !tbaa !22
  %19 = getelementptr inbounds nuw %struct.SilenceDetectContext, ptr %18, i32 0, i32 4
  store i32 %17, ptr %19, align 4, !tbaa !65
  %20 = load ptr, ptr %5, align 8, !tbaa !22
  %21 = getelementptr inbounds nuw %struct.SilenceDetectContext, ptr %20, i32 0, i32 2
  %22 = load i64, ptr %21, align 8, !tbaa !53
  %23 = load ptr, ptr %3, align 8, !tbaa !35
  %24 = getelementptr inbounds nuw %struct.AVFilterLink, ptr %23, i32 0, i32 11
  %25 = load i32, ptr %24, align 8, !tbaa !47
  %26 = sext i32 %25 to i64
  %27 = call i64 @av_rescale(i64 noundef %22, i64 noundef %26, i64 noundef 1000000) #11
  %28 = load ptr, ptr %5, align 8, !tbaa !22
  %29 = getelementptr inbounds nuw %struct.SilenceDetectContext, ptr %28, i32 0, i32 2
  store i64 %27, ptr %29, align 8, !tbaa !53
  %30 = load ptr, ptr %5, align 8, !tbaa !22
  %31 = getelementptr inbounds nuw %struct.SilenceDetectContext, ptr %30, i32 0, i32 3
  %32 = load i32, ptr %31, align 8, !tbaa !54
  %33 = icmp ne i32 %32, 0
  br i1 %33, label %34, label %38

34:                                               ; preds = %1
  %35 = load ptr, ptr %5, align 8, !tbaa !22
  %36 = getelementptr inbounds nuw %struct.SilenceDetectContext, ptr %35, i32 0, i32 4
  %37 = load i32, ptr %36, align 4, !tbaa !65
  br label %39

38:                                               ; preds = %1
  br label %39

39:                                               ; preds = %38, %34
  %40 = phi i32 [ %37, %34 ], [ 1, %38 ]
  %41 = load ptr, ptr %5, align 8, !tbaa !22
  %42 = getelementptr inbounds nuw %struct.SilenceDetectContext, ptr %41, i32 0, i32 5
  store i32 %40, ptr %42, align 8, !tbaa !25
  %43 = load ptr, ptr %5, align 8, !tbaa !22
  %44 = getelementptr inbounds nuw %struct.SilenceDetectContext, ptr %43, i32 0, i32 5
  %45 = load i32, ptr %44, align 8, !tbaa !25
  %46 = sext i32 %45 to i64
  %47 = call noalias ptr @av_calloc(i64 noundef %46, i64 noundef 8)
  %48 = load ptr, ptr %5, align 8, !tbaa !22
  %49 = getelementptr inbounds nuw %struct.SilenceDetectContext, ptr %48, i32 0, i32 6
  store ptr %47, ptr %49, align 8, !tbaa !56
  %50 = load ptr, ptr %5, align 8, !tbaa !22
  %51 = getelementptr inbounds nuw %struct.SilenceDetectContext, ptr %50, i32 0, i32 6
  %52 = load ptr, ptr %51, align 8, !tbaa !56
  %53 = icmp ne ptr %52, null
  br i1 %53, label %55, label %54

54:                                               ; preds = %39
  store i32 -12, ptr %2, align 4
  store i32 1, ptr %7, align 4
  br label %131

55:                                               ; preds = %39
  %56 = load ptr, ptr %5, align 8, !tbaa !22
  %57 = getelementptr inbounds nuw %struct.SilenceDetectContext, ptr %56, i32 0, i32 5
  %58 = load i32, ptr %57, align 8, !tbaa !25
  %59 = sext i32 %58 to i64
  %60 = call ptr @av_malloc_array(i64 noundef 8, i64 noundef %59)
  %61 = load ptr, ptr %5, align 8, !tbaa !22
  %62 = getelementptr inbounds nuw %struct.SilenceDetectContext, ptr %61, i32 0, i32 7
  store ptr %60, ptr %62, align 8, !tbaa !31
  %63 = load ptr, ptr %5, align 8, !tbaa !22
  %64 = getelementptr inbounds nuw %struct.SilenceDetectContext, ptr %63, i32 0, i32 7
  %65 = load ptr, ptr %64, align 8, !tbaa !31
  %66 = icmp ne ptr %65, null
  br i1 %66, label %68, label %67

67:                                               ; preds = %55
  store i32 -12, ptr %2, align 4
  store i32 1, ptr %7, align 4
  br label %131

68:                                               ; preds = %55
  store i32 0, ptr %6, align 4, !tbaa !24
  br label %69

69:                                               ; preds = %82, %68
  %70 = load i32, ptr %6, align 4, !tbaa !24
  %71 = load ptr, ptr %5, align 8, !tbaa !22
  %72 = getelementptr inbounds nuw %struct.SilenceDetectContext, ptr %71, i32 0, i32 5
  %73 = load i32, ptr %72, align 8, !tbaa !25
  %74 = icmp slt i32 %70, %73
  br i1 %74, label %75, label %85

75:                                               ; preds = %69
  %76 = load ptr, ptr %5, align 8, !tbaa !22
  %77 = getelementptr inbounds nuw %struct.SilenceDetectContext, ptr %76, i32 0, i32 7
  %78 = load ptr, ptr %77, align 8, !tbaa !31
  %79 = load i32, ptr %6, align 4, !tbaa !24
  %80 = sext i32 %79 to i64
  %81 = getelementptr inbounds i64, ptr %78, i64 %80
  store i64 -9223372036854775808, ptr %81, align 8, !tbaa !32
  br label %82

82:                                               ; preds = %75
  %83 = load i32, ptr %6, align 4, !tbaa !24
  %84 = add nsw i32 %83, 1
  store i32 %84, ptr %6, align 4, !tbaa !24
  br label %69, !llvm.loop !66

85:                                               ; preds = %69
  %86 = load ptr, ptr %3, align 8, !tbaa !35
  %87 = getelementptr inbounds nuw %struct.AVFilterLink, ptr %86, i32 0, i32 5
  %88 = load i32, ptr %87, align 4, !tbaa !67
  switch i32 %88, label %129 [
    i32 4, label %89
    i32 3, label %92
    i32 2, label %95
    i32 1, label %102
    i32 9, label %109
    i32 8, label %112
    i32 7, label %115
    i32 6, label %122
  ]

89:                                               ; preds = %85
  %90 = load ptr, ptr %5, align 8, !tbaa !22
  %91 = getelementptr inbounds nuw %struct.SilenceDetectContext, ptr %90, i32 0, i32 11
  store ptr @silencedetect_dbl, ptr %91, align 8, !tbaa !63
  br label %130

92:                                               ; preds = %85
  %93 = load ptr, ptr %5, align 8, !tbaa !22
  %94 = getelementptr inbounds nuw %struct.SilenceDetectContext, ptr %93, i32 0, i32 11
  store ptr @silencedetect_flt, ptr %94, align 8, !tbaa !63
  br label %130

95:                                               ; preds = %85
  %96 = load ptr, ptr %5, align 8, !tbaa !22
  %97 = getelementptr inbounds nuw %struct.SilenceDetectContext, ptr %96, i32 0, i32 1
  %98 = load double, ptr %97, align 8, !tbaa !68
  %99 = fmul nsz double %98, 0x41DFFFFFFFC00000
  store double %99, ptr %97, align 8, !tbaa !68
  %100 = load ptr, ptr %5, align 8, !tbaa !22
  %101 = getelementptr inbounds nuw %struct.SilenceDetectContext, ptr %100, i32 0, i32 11
  store ptr @silencedetect_s32, ptr %101, align 8, !tbaa !63
  br label %130

102:                                              ; preds = %85
  %103 = load ptr, ptr %5, align 8, !tbaa !22
  %104 = getelementptr inbounds nuw %struct.SilenceDetectContext, ptr %103, i32 0, i32 1
  %105 = load double, ptr %104, align 8, !tbaa !68
  %106 = fmul nsz double %105, 3.276700e+04
  store double %106, ptr %104, align 8, !tbaa !68
  %107 = load ptr, ptr %5, align 8, !tbaa !22
  %108 = getelementptr inbounds nuw %struct.SilenceDetectContext, ptr %107, i32 0, i32 11
  store ptr @silencedetect_s16, ptr %108, align 8, !tbaa !63
  br label %130

109:                                              ; preds = %85
  %110 = load ptr, ptr %5, align 8, !tbaa !22
  %111 = getelementptr inbounds nuw %struct.SilenceDetectContext, ptr %110, i32 0, i32 11
  store ptr @silencedetect_dblp, ptr %111, align 8, !tbaa !63
  br label %130

112:                                              ; preds = %85
  %113 = load ptr, ptr %5, align 8, !tbaa !22
  %114 = getelementptr inbounds nuw %struct.SilenceDetectContext, ptr %113, i32 0, i32 11
  store ptr @silencedetect_fltp, ptr %114, align 8, !tbaa !63
  br label %130

115:                                              ; preds = %85
  %116 = load ptr, ptr %5, align 8, !tbaa !22
  %117 = getelementptr inbounds nuw %struct.SilenceDetectContext, ptr %116, i32 0, i32 1
  %118 = load double, ptr %117, align 8, !tbaa !68
  %119 = fmul nsz double %118, 0x41DFFFFFFFC00000
  store double %119, ptr %117, align 8, !tbaa !68
  %120 = load ptr, ptr %5, align 8, !tbaa !22
  %121 = getelementptr inbounds nuw %struct.SilenceDetectContext, ptr %120, i32 0, i32 11
  store ptr @silencedetect_s32p, ptr %121, align 8, !tbaa !63
  br label %130

122:                                              ; preds = %85
  %123 = load ptr, ptr %5, align 8, !tbaa !22
  %124 = getelementptr inbounds nuw %struct.SilenceDetectContext, ptr %123, i32 0, i32 1
  %125 = load double, ptr %124, align 8, !tbaa !68
  %126 = fmul nsz double %125, 3.276700e+04
  store double %126, ptr %124, align 8, !tbaa !68
  %127 = load ptr, ptr %5, align 8, !tbaa !22
  %128 = getelementptr inbounds nuw %struct.SilenceDetectContext, ptr %127, i32 0, i32 11
  store ptr @silencedetect_s16p, ptr %128, align 8, !tbaa !63
  br label %130

129:                                              ; preds = %85
  store i32 -558323010, ptr %2, align 4
  store i32 1, ptr %7, align 4
  br label %131

130:                                              ; preds = %122, %115, %112, %109, %102, %95, %92, %89
  store i32 0, ptr %2, align 4
  store i32 1, ptr %7, align 4
  br label %131

131:                                              ; preds = %130, %129, %67, %54
  call void @llvm.lifetime.end.p0(i64 4, ptr %6) #10
  call void @llvm.lifetime.end.p0(i64 8, ptr %5) #10
  call void @llvm.lifetime.end.p0(i64 8, ptr %4) #10
  %132 = load i32, ptr %2, align 4
  ret i32 %132
}