; Function Attrs: nounwind uwtable
define internal range(i32 -558323010, 1) i32 @config_input(ptr noundef readonly captures(none) %0) #1 {
  %2 = getelementptr inbounds nuw i8, ptr %0, i64 16
  %3 = load ptr, ptr %2, align 8, !tbaa !33
  %4 = getelementptr inbounds nuw i8, ptr %3, i64 72
  %5 = load ptr, ptr %4, align 8, !tbaa !4
  %6 = getelementptr inbounds nuw i8, ptr %0, i64 76
  %7 = load i32, ptr %6, align 4, !tbaa !41
  %8 = getelementptr inbounds nuw i8, ptr %5, i64 28
  store i32 %7, ptr %8, align 4, !tbaa !56
  %9 = getelementptr inbounds nuw i8, ptr %5, i64 16
  %10 = load i64, ptr %9, align 8, !tbaa !48
  %11 = getelementptr inbounds nuw i8, ptr %0, i64 64
  %12 = load i32, ptr %11, align 8, !tbaa !42
  %13 = sext i32 %12 to i64
  %14 = tail call i64 @av_rescale(i64 noundef %10, i64 noundef %13, i64 noundef 1000000) #8
  store i64 %14, ptr %9, align 8, !tbaa !48
  %15 = getelementptr inbounds nuw i8, ptr %5, i64 24
  %16 = load i32, ptr %15, align 8, !tbaa !29
  %.not = icmp eq i32 %16, 0
  %spec.select = select i1 %.not, i32 1, i32 %7
  %17 = getelementptr inbounds nuw i8, ptr %5, i64 32
  store i32 %spec.select, ptr %17, align 8, !tbaa !20
  %18 = sext i32 %spec.select to i64
  %19 = tail call noalias ptr @av_calloc(i64 noundef %18, i64 noundef 8) #7
  %20 = getelementptr inbounds nuw i8, ptr %5, i64 40
  store ptr %19, ptr %20, align 8, !tbaa !30
  %.not35 = icmp eq ptr %19, null
  br i1 %.not35, label %51, label %21

21:                                               ; preds = %1
  %22 = load i32, ptr %17, align 8, !tbaa !20
  %23 = sext i32 %22 to i64
  %24 = tail call ptr @av_malloc_array(i64 noundef 8, i64 noundef %23) #7
  %25 = getelementptr inbounds nuw i8, ptr %5, i64 48
  store ptr %24, ptr %25, align 8, !tbaa !26
  %.not36 = icmp eq ptr %24, null
  br i1 %.not36, label %51, label %.preheader

.preheader:                                       ; preds = %21
  %26 = load i32, ptr %17, align 8, !tbaa !20
  %27 = icmp sgt i32 %26, 0
  br i1 %27, label %.lr.ph.preheader, label %._crit_edge

.lr.ph.preheader:                                 ; preds = %.preheader
  %wide.trip.count = zext nneg i32 %26 to i64
  br label %.lr.ph

.lr.ph:                                           ; preds = %.lr.ph.preheader, %.lr.ph
  %indvars.iv = phi i64 [ 0, %.lr.ph.preheader ], [ %indvars.iv.next, %.lr.ph ]
  %28 = getelementptr inbounds nuw i64, ptr %24, i64 %indvars.iv
  store i64 -9223372036854775808, ptr %28, align 8, !tbaa !27
  %indvars.iv.next = add nuw nsw i64 %indvars.iv, 1
  %exitcond.not = icmp eq i64 %indvars.iv.next, %wide.trip.count
  br i1 %exitcond.not, label %._crit_edge, label %.lr.ph, !llvm.loop !57

._crit_edge:                                      ; preds = %.lr.ph, %.preheader
  %29 = getelementptr inbounds nuw i8, ptr %0, i64 36
  %30 = load i32, ptr %29, align 4, !tbaa !58
  switch i32 %30, label %51 [
    i32 4, label %.sink.split
    i32 3, label %31
    i32 2, label %32
    i32 1, label %36
    i32 9, label %40
    i32 8, label %41
    i32 7, label %42
    i32 6, label %46
  ]

31:                                               ; preds = %._crit_edge
  br label %.sink.split

32:                                               ; preds = %._crit_edge
  %33 = getelementptr inbounds nuw i8, ptr %5, i64 8
  %34 = load double, ptr %33, align 8, !tbaa !59
  %35 = fmul nsz double %34, 0x41DFFFFFFFC00000
  store double %35, ptr %33, align 8, !tbaa !59
  br label %.sink.split

36:                                               ; preds = %._crit_edge
  %37 = getelementptr inbounds nuw i8, ptr %5, i64 8
  %38 = load double, ptr %37, align 8, !tbaa !59
  %39 = fmul nsz double %38, 3.276700e+04
  store double %39, ptr %37, align 8, !tbaa !59
  br label %.sink.split

40:                                               ; preds = %._crit_edge
  br label %.sink.split

41:                                               ; preds = %._crit_edge
  br label %.sink.split

42:                                               ; preds = %._crit_edge
  %43 = getelementptr inbounds nuw i8, ptr %5, i64 8
  %44 = load double, ptr %43, align 8, !tbaa !59
  %45 = fmul nsz double %44, 0x41DFFFFFFFC00000
  store double %45, ptr %43, align 8, !tbaa !59
  br label %.sink.split

46:                                               ; preds = %._crit_edge
  %47 = getelementptr inbounds nuw i8, ptr %5, i64 8
  %48 = load double, ptr %47, align 8, !tbaa !59
  %49 = fmul nsz double %48, 3.276700e+04
  store double %49, ptr %47, align 8, !tbaa !59
  br label %.sink.split

.sink.split:                                      ; preds = %._crit_edge, %46, %42, %41, %40, %36, %32, %31
  %silencedetect_dbl.sink = phi ptr [ @silencedetect_flt, %31 ], [ @silencedetect_s32, %32 ], [ @silencedetect_s16, %36 ], [ @silencedetect_dblp, %40 ], [ @silencedetect_fltp, %41 ], [ @silencedetect_s32p, %42 ], [ @silencedetect_s16p, %46 ], [ @silencedetect_dbl, %._crit_edge ]
  %50 = getelementptr inbounds nuw i8, ptr %5, i64 80
  store ptr %silencedetect_dbl.sink, ptr %50, align 8, !tbaa !52
  br label %51

51:                                               ; preds = %.sink.split, %._crit_edge, %21, %1
  %.034 = phi i32 [ -12, %1 ], [ -12, %21 ], [ -558323010, %._crit_edge ], [ 0, %.sink.split ]
  ret i32 %.034
}